	.file	"data_encryption_xor.c"
	.text
	.globl	encrypt
	.type	encrypt, @function
encrypt:
.LFB0:
	.cfi_startproc
	endbr64
	pushq	%rbp
	.cfi_def_cfa_offset 16
	.cfi_offset 6, -16
	movq	%rsp, %rbp
	.cfi_def_cfa_register 6
	movq	%rdi, -8(%rbp)
	movl	%esi, %eax
	movb	%al, -12(%rbp)
	jmp	.L2
.L3:
	movq	-8(%rbp), %rax
	movzbl	(%rax), %eax
	xorb	-12(%rbp), %al
	movl	%eax, %edx
	movq	-8(%rbp), %rax
	movb	%dl, (%rax)
	addq	$1, -8(%rbp)
.L2:
	movq	-8(%rbp), %rax
	movzbl	(%rax), %eax
	testb	%al, %al
	jne	.L3
	nop
	nop
	popq	%rbp
	.cfi_def_cfa 7, 8
	ret
	.cfi_endproc
.LFE0:
	.size	encrypt, .-encrypt
	.section	.rodata
.LC0:
	.string	"Original message: %s\n"
.LC1:
	.string	"Encrypted message: %s\n"
.LC2:
	.string	"Decrypted message: %s\n"
	.text
	.globl	main
	.type	main, @function
main:
.LFB1:
	.cfi_startproc
	endbr64
	pushq	%rbp
	.cfi_def_cfa_offset 16
	.cfi_offset 6, -16
	movq	%rsp, %rbp
	.cfi_def_cfa_register 6
	subq	$32, %rsp
	movq	%fs:40, %rax
	movq	%rax, -8(%rbp)
	xorl	%eax, %eax
	movabsq	$8532478965287118163, %rax
	movq	%rax, -22(%rbp)
	movl	$1952531557, -14(%rbp)
	movw	$97, -10(%rbp)
	movb	$-86, -23(%rbp)
	leaq	-22(%rbp), %rax
	movq	%rax, %rsi
	leaq	.LC0(%rip), %rdi
	movl	$0, %eax
	call	printf@PLT
	movsbl	-23(%rbp), %edx
	leaq	-22(%rbp), %rax
	movl	%edx, %esi
	movq	%rax, %rdi
	call	encrypt
	leaq	-22(%rbp), %rax
	movq	%rax, %rsi
	leaq	.LC1(%rip), %rdi
	movl	$0, %eax
	call	printf@PLT
	movsbl	-23(%rbp), %edx
	leaq	-22(%rbp), %rax
	movl	%edx, %esi
	movq	%rax, %rdi
	call	encrypt
	leaq	-22(%rbp), %rax
	movq	%rax, %rsi
	leaq	.LC2(%rip), %rdi
	movl	$0, %eax
	call	printf@PLT
	movl	$0, %eax
	movq	-8(%rbp), %rcx
	xorq	%fs:40, %rcx
	je	.L6
	call	__stack_chk_fail@PLT
.L6:
	leave
	.cfi_def_cfa 7, 8
	ret
	.cfi_endproc
.LFE1:
	.size	main, .-main
	.ident	"GCC: (Ubuntu 9.4.0-1ubuntu1~20.04.2) 9.4.0"
	.section	.note.GNU-stack,"",@progbits
	.section	.note.gnu.property,"a"
	.align 8
	.long	 1f - 0f
	.long	 4f - 1f
	.long	 5
0:
	.string	 "GNU"
1:
	.align 8
	.long	 0xc0000002
	.long	 3f - 2f
2:
	.long	 0x3
3:
	.align 8
4:
