	.file	"simple_secure_branch.c"
	.text
	.globl	foo
	.type	foo, @function
foo:
.LFB0:
	.cfi_startproc
	endbr64
	pushq	%rbp
	.cfi_def_cfa_offset 16
	.cfi_offset 6, -16
	movq	%rsp, %rbp
	.cfi_def_cfa_register 6
	movq	%rdi, -24(%rbp)
	movl	$15523, -4(%rbp)
	movl	-4(%rbp), %eax
	leal	2(%rax), %edx
	movq	-24(%rbp), %rax
	movl	%edx, (%rax)
	nop
	popq	%rbp
	.cfi_def_cfa 7, 8
	ret
	.cfi_endproc
.LFE0:
	.size	foo, .-foo
	.section	.rodata
.LC0:
	.string	"Executing critical code..."
.LC1:
	.string	"Exiting out..."
	.text
	.globl	main
	.type	main, @function
main:
.LFB1:
	.cfi_startproc
	endbr64
	pushq	%rbp
	.cfi_def_cfa_offset 16
	.cfi_offset 6, -16
	movq	%rsp, %rbp
	.cfi_def_cfa_register 6
	subq	$16, %rsp
	movq	%fs:40, %rax
	movq	%rax, -8(%rbp)
	xorl	%eax, %eax
	movl	$0, -12(%rbp)
	leaq	-12(%rbp), %rax
	movq	%rax, %rdi
	call	foo
	movl	-12(%rbp), %eax
	cmpl	$15525, %eax
	jne	.L3
	leaq	.LC0(%rip), %rdi
	call	puts@PLT
	movl	$0, %eax
	jmp	.L6
.L3:
	leaq	.LC1(%rip), %rdi
	call	puts@PLT
	movl	$1, %eax
.L6:
	movq	-8(%rbp), %rdx
	xorq	%fs:40, %rdx
	je	.L7
	call	__stack_chk_fail@PLT
.L7:
	leave
	.cfi_def_cfa 7, 8
	ret
	.cfi_endproc
.LFE1:
	.size	main, .-main
	.ident	"GCC: (Ubuntu 9.4.0-1ubuntu1~20.04.1) 9.4.0"
	.section	.note.GNU-stack,"",@progbits
	.section	.note.gnu.property,"a"
	.align 8
	.long	 1f - 0f
	.long	 4f - 1f
	.long	 5
0:
	.string	 "GNU"
1:
	.align 8
	.long	 0xc0000002
	.long	 3f - 2f
2:
	.long	 0x3
3:
	.align 8
4:
