	.file	"complex_insecure_branch.c"
	.text
	.globl	checkPassword
	.type	checkPassword, @function
checkPassword:
.LFB0:
	.cfi_startproc
	endbr64
	pushq	%rbp
	.cfi_def_cfa_offset 16
	.cfi_offset 6, -16
	movq	%rsp, %rbp
	.cfi_def_cfa_register 6
	movq	%rdi, -8(%rbp)
	movq	-8(%rbp), %rax
	movl	(%rax), %eax
	leal	1(%rax), %edx
	movq	-8(%rbp), %rax
	movl	%edx, (%rax)
	movq	-8(%rbp), %rax
	movl	(%rax), %eax
	cmpl	$1, %eax
	jne	.L2
	movl	$0, %eax
	jmp	.L3
.L2:
	movl	$1, %eax
.L3:
	popq	%rbp
	.cfi_def_cfa 7, 8
	ret
	.cfi_endproc
.LFE0:
	.size	checkPassword, .-checkPassword
	.section	.rodata
.LC0:
	.string	"Access granted."
.LC1:
	.string	"Access denied."
	.text
	.globl	main
	.type	main, @function
main:
.LFB1:
	.cfi_startproc
	endbr64
	pushq	%rbp
	.cfi_def_cfa_offset 16
	.cfi_offset 6, -16
	movq	%rsp, %rbp
	.cfi_def_cfa_register 6
	subq	$16, %rsp
	movq	%fs:40, %rax
	movq	%rax, -8(%rbp)
	xorl	%eax, %eax
	call	getchar@PLT
	movl	%eax, -12(%rbp)
	leaq	-12(%rbp), %rax
	movq	%rax, %rdi
	call	checkPassword
	cmpl	$1, %eax
	jne	.L5
	leaq	.LC0(%rip), %rdi
	call	puts@PLT
	movl	$0, %eax
	jmp	.L8
.L5:
	leaq	.LC1(%rip), %rdi
	call	puts@PLT
	movl	$1, %eax
.L8:
	movq	-8(%rbp), %rdx
	xorq	%fs:40, %rdx
	je	.L9
	call	__stack_chk_fail@PLT
.L9:
	leave
	.cfi_def_cfa 7, 8
	ret
	.cfi_endproc
.LFE1:
	.size	main, .-main
	.ident	"GCC: (Ubuntu 9.4.0-1ubuntu1~20.04.2) 9.4.0"
	.section	.note.GNU-stack,"",@progbits
	.section	.note.gnu.property,"a"
	.align 8
	.long	 1f - 0f
	.long	 4f - 1f
	.long	 5
0:
	.string	 "GNU"
1:
	.align 8
	.long	 0xc0000002
	.long	 3f - 2f
2:
	.long	 0x3
3:
	.align 8
4:
